(dp1
S'LOSS_METHOD'
p2
S'wgan'
p3
sS'NETWORK'
p4
S'pix2pix'
p5
sS'L1_WEIGHT'
p6
F100
sS'LEARNING_RATE'
p7
F0.0001
sS'IG_WEIGHT'
p8
F1
sS'EPOCHS'
p9
I100
sS'BATCH_SIZE'
p10
I32
sS'DATA'
p11
S'underwater_imagenet'
p12
s.